; Function Attrs: nounwind uwtable
define internal i32 @rsa_to_type_specific_keypair_der_encode(ptr noundef %0, ptr noundef %1, ptr noundef %2, ptr noundef readnone captures(address_is_null) %3, i32 noundef %4, ptr noundef %5, ptr noundef %6) #0 {
  %.not = icmp eq ptr %3, null
  br i1 %.not, label %9, label %8

8:                                                ; preds = %7
  tail call void @ERR_new() #5
  tail call void @ERR_set_debug(ptr noundef nonnull @.str, i32 noundef 1395, ptr noundef nonnull @__func__.rsa_to_type_specific_keypair_der_encode) #5
  tail call void (i32, i32, ptr, ...) @ERR_set_error(i32 noundef 57, i32 noundef 524550, ptr noundef null) #5
  br label %18

9:                                                ; preds = %7
  %10 = and i32 %4, 1
  %.not13 = icmp eq i32 %10, 0
  br i1 %.not13, label %13, label %11

11:                                               ; preds = %9
  %12 = tail call fastcc i32 @key2any_encode(ptr noundef %0, ptr noundef %1, ptr noundef %2, i32 noundef 6, ptr noundef nonnull @.str.4, ptr noundef nonnull @rsa_check_key_type, ptr noundef nonnull @key_to_type_specific_der_bio, ptr noundef %5, ptr noundef %6, ptr noundef nonnull @prepare_rsa_params, ptr noundef nonnull @rsa_prv_k2d)
  br label %18

13:                                               ; preds = %9
  %14 = and i32 %4, 2
  %.not14 = icmp eq i32 %14, 0
  br i1 %.not14, label %17, label %15

15:                                               ; preds = %13
  %16 = tail call fastcc i32 @key2any_encode(ptr noundef %0, ptr noundef %1, ptr noundef %2, i32 noundef 6, ptr noundef nonnull @.str.5, ptr noundef nonnull @rsa_check_key_type, ptr noundef nonnull @key_to_type_specific_der_bio, ptr noundef %5, ptr noundef %6, ptr noundef nonnull @prepare_rsa_params, ptr noundef nonnull @rsa_pub_k2d)
  br label %18

17:                                               ; preds = %13
  tail call void @ERR_new() #5
  tail call void @ERR_set_debug(ptr noundef nonnull @.str, i32 noundef 1395, ptr noundef nonnull @__func__.rsa_to_type_specific_keypair_der_encode) #5
  tail call void (i32, i32, ptr, ...) @ERR_set_error(i32 noundef 57, i32 noundef 524550, ptr noundef null) #5
  br label %18

18:                                               ; preds = %17, %15, %11, %8
  %.0 = phi i32 [ 0, %8 ], [ %12, %11 ], [ %16, %15 ], [ 0, %17 ]
  ret i32 %.0
}